target datalayout = "e-m:e-p270:32:32-p271:32:32-p272:64:64-i64:64-i128:128-f80:128-n8:16:32:64-S128"
target triple = "x86_64-pc-linux-gnu"

%struct.slurm_preempt_ops = type { ptr, ptr, ptr }

@plugin_inited = internal global i32 0, align 4
@ops = internal global %struct.slurm_preempt_ops zeroinitializer, align 8

; Function Attrs: nounwind uwtable
define dso_local zeroext i1 @preempt_g_job_preempt_check(ptr noundef %0, ptr noundef %1) #0 {
  %3 = alloca i1, align 1
  %4 = alloca ptr, align 8
  %5 = alloca ptr, align 8
  store ptr %0, ptr %4, align 8
  store ptr %1, ptr %5, align 8
  %6 = load i32, ptr @plugin_inited, align 4
  %7 = icmp eq i32 %6, 1
  br i1 %7, label %8, label %9

8:                                                ; preds = %2
  store i1 false, ptr %3, align 1
  br label %14

9:                                                ; preds = %2
  %10 = load ptr, ptr @ops, align 8
  %11 = load ptr, ptr %4, align 8
  %12 = load ptr, ptr %5, align 8
  %13 = call zeroext i1 %10(ptr noundef %11, ptr noundef %12)
  store i1 %13, ptr %3, align 1
  br label %14

14:                                               ; preds = %9, %8
  %15 = load i1, ptr %3, align 1
  ret i1 %15
}