; Function Attrs: nounwind uwtable
define dso_local zeroext i1 @preempt_g_job_preempt_check(ptr noundef %0, ptr noundef %1) local_unnamed_addr #0 {
  %3 = load i32, ptr @plugin_inited, align 4
  %4 = icmp eq i32 %3, 1
  br i1 %4, label %8, label %5

5:                                                ; preds = %2
  %6 = load ptr, ptr @ops, align 8
  %7 = tail call zeroext i1 %6(ptr noundef %0, ptr noundef %1) #8
  br label %8

8:                                                ; preds = %2, %5
  %.0 = phi i1 [ %7, %5 ], [ false, %2 ]
  ret i1 %.0
}